; Function Attrs: mustprogress uwtable
define hidden void @_ZN7datalog12rule_counter15count_rule_varsEPKNS_4ruleEi(ptr noundef nonnull align 8 dereferenceable(224) %this, ptr nocapture noundef readonly %r, i32 noundef %coef) local_unnamed_addr #3 align 2 {
entry:
  %m_size.i.i.i = getelementptr inbounds i8, ptr %this, i64 12
  %0 = load i32, ptr %m_size.i.i.i, align 4
  %cmp.i.i.i = icmp eq i32 %0, 0
  %m_num_deleted.i.i.i = getelementptr inbounds i8, ptr %this, i64 16
  %1 = load i32, ptr %m_num_deleted.i.i.i, align 8
  %cmp2.i.i.i = icmp eq i32 %1, 0
  %or.cond.i.i.i = select i1 %cmp.i.i.i, i1 %cmp2.i.i.i, i1 false
  br i1 %or.cond.i.i.i, label %_ZN7counter5resetEv.exit, label %if.end.i.i.i

if.end.i.i.i:                                     ; preds = %entry
  %2 = load ptr, ptr %this, align 8
  %m_capacity.i.i.i = getelementptr inbounds i8, ptr %this, i64 8
  %3 = load i32, ptr %m_capacity.i.i.i, align 8
  %idx.ext.i.i.i = zext i32 %3 to i64
  %add.ptr.i.i.i = getelementptr inbounds %class.default_map_entry, ptr %2, i64 %idx.ext.i.i.i
  %cmp4.not6.i.i.i = icmp eq i32 %3, 0
  br i1 %cmp4.not6.i.i.i, label %if.end18.i.i.i, label %for.body.i.i.i

for.body.i.i.i:                                   ; preds = %if.end.i.i.i, %for.inc.i.i.i
  %overhead.08.i.i.i = phi i32 [ %overhead.1.i.i.i, %for.inc.i.i.i ], [ 0, %if.end.i.i.i ]
  %curr.07.i.i.i = phi ptr [ %incdec.ptr.i.i.i, %for.inc.i.i.i ], [ %2, %if.end.i.i.i ]
  %m_state.i.i.i.i = getelementptr inbounds i8, ptr %curr.07.i.i.i, i64 4
  %4 = load i32, ptr %m_state.i.i.i.i, align 4
  %cmp.i.i.i.i = icmp eq i32 %4, 0
  br i1 %cmp.i.i.i.i, label %if.else.i.i.i, label %if.then5.i.i.i

if.then5.i.i.i:                                   ; preds = %for.body.i.i.i
  store i32 0, ptr %m_state.i.i.i.i, align 4
  br label %for.inc.i.i.i

if.else.i.i.i:                                    ; preds = %for.body.i.i.i
  %inc.i.i.i = add i32 %overhead.08.i.i.i, 1
  br label %for.inc.i.i.i

for.inc.i.i.i:                                    ; preds = %if.else.i.i.i, %if.then5.i.i.i
  %overhead.1.i.i.i = phi i32 [ %inc.i.i.i, %if.else.i.i.i ], [ %overhead.08.i.i.i, %if.then5.i.i.i ]
  %incdec.ptr.i.i.i = getelementptr inbounds i8, ptr %curr.07.i.i.i, i64 16
  %cmp4.not.i.i.i = icmp eq ptr %incdec.ptr.i.i.i, %add.ptr.i.i.i
  br i1 %cmp4.not.i.i.i, label %for.end.i.i.i, label %for.body.i.i.i, !llvm.loop !22

for.end.i.i.i:                                    ; preds = %for.inc.i.i.i
  %.pre.i.i.i = load i32, ptr %m_capacity.i.i.i, align 8
  %5 = shl i32 %overhead.1.i.i.i, 2
  %cmp8.i.i.i = icmp ugt i32 %.pre.i.i.i, 16
  %mul.i.i.i = mul i32 %.pre.i.i.i, 3
  %cmp11.i.i.i = icmp ugt i32 %5, %mul.i.i.i
  %or.cond12.i.i.i = select i1 %cmp8.i.i.i, i1 %cmp11.i.i.i, i1 false
  br i1 %or.cond12.i.i.i, label %if.then12.i.i.i, label %if.end18.i.i.i

if.then12.i.i.i:                                  ; preds = %for.end.i.i.i
  %6 = load ptr, ptr %this, align 8
  %cmp.i.i.i.i.i = icmp eq ptr %6, null
  br i1 %cmp.i.i.i.i.i, label %_ZN14core_hashtableI17default_map_entryIjiEN9table2mapIS1_6u_hash4u_eqE15entry_hash_procENS5_13entry_eq_procEE12delete_tableEv.exit.i.i.i, label %for.cond.preheader.i.i.i.i.i

for.cond.preheader.i.i.i.i.i:                     ; preds = %if.then12.i.i.i
  tail call void @_ZN6memory10deallocateEPv(ptr noundef nonnull %6)
  %.pre9.i.i.i = load i32, ptr %m_capacity.i.i.i, align 8
  br label %_ZN14core_hashtableI17default_map_entryIjiEN9table2mapIS1_6u_hash4u_eqE15entry_hash_procENS5_13entry_eq_procEE12delete_tableEv.exit.i.i.i

_ZN14core_hashtableI17default_map_entryIjiEN9table2mapIS1_6u_hash4u_eqE15entry_hash_procENS5_13entry_eq_procEE12delete_tableEv.exit.i.i.i: ; preds = %for.cond.preheader.i.i.i.i.i, %if.then12.i.i.i
  %7 = phi i32 [ %.pre.i.i.i, %if.then12.i.i.i ], [ %.pre9.i.i.i, %for.cond.preheader.i.i.i.i.i ]
  store ptr null, ptr %this, align 8
  %shr.i.i.i = lshr i32 %7, 1
  store i32 %shr.i.i.i, ptr %m_capacity.i.i.i, align 8
  %conv.i.i.i.i.i = zext nneg i32 %shr.i.i.i to i64
  %mul.i.i.i.i.i = shl nuw nsw i64 %conv.i.i.i.i.i, 4
  %call.i.i.i.i.i = tail call noalias noundef ptr @_ZN6memory8allocateEm(i64 noundef %mul.i.i.i.i.i)
  %cmp5.not.i.i.i.i.i = icmp ult i32 %7, 2
  br i1 %cmp5.not.i.i.i.i.i, label %_ZN14core_hashtableI17default_map_entryIjiEN9table2mapIS1_6u_hash4u_eqE15entry_hash_procENS5_13entry_eq_procEE11alloc_tableEj.exit.i.i.i, label %for.body.i.preheader.i.i.i.i

for.body.i.preheader.i.i.i.i:                     ; preds = %_ZN14core_hashtableI17default_map_entryIjiEN9table2mapIS1_6u_hash4u_eqE15entry_hash_procENS5_13entry_eq_procEE12delete_tableEv.exit.i.i.i
  tail call void @llvm.memset.p0.i64(ptr align 4 %call.i.i.i.i.i, i8 0, i64 %mul.i.i.i.i.i, i1 false)
  br label %_ZN14core_hashtableI17default_map_entryIjiEN9table2mapIS1_6u_hash4u_eqE15entry_hash_procENS5_13entry_eq_procEE11alloc_tableEj.exit.i.i.i

_ZN14core_hashtableI17default_map_entryIjiEN9table2mapIS1_6u_hash4u_eqE15entry_hash_procENS5_13entry_eq_procEE11alloc_tableEj.exit.i.i.i: ; preds = %for.body.i.preheader.i.i.i.i, %_ZN14core_hashtableI17default_map_entryIjiEN9table2mapIS1_6u_hash4u_eqE15entry_hash_procENS5_13entry_eq_procEE12delete_tableEv.exit.i.i.i
  store ptr %call.i.i.i.i.i, ptr %this, align 8
  br label %if.end18.i.i.i

if.end18.i.i.i:                                   ; preds = %_ZN14core_hashtableI17default_map_entryIjiEN9table2mapIS1_6u_hash4u_eqE15entry_hash_procENS5_13entry_eq_procEE11alloc_tableEj.exit.i.i.i, %for.end.i.i.i, %if.end.i.i.i
  store i32 0, ptr %m_size.i.i.i, align 4
  store i32 0, ptr %m_num_deleted.i.i.i, align 8
  br label %_ZN7counter5resetEv.exit

_ZN7counter5resetEv.exit:                         ; preds = %entry, %if.end18.i.i.i
  %m_head.i = getelementptr inbounds i8, ptr %r, i64 40
  %8 = load ptr, ptr %m_head.i, align 8
  tail call void @_ZN11var_counter10count_varsEPK3appi(ptr noundef nonnull align 8 dereferenceable(224) %this, ptr noundef %8, i32 noundef 1)
  %m_tail_size.i = getelementptr inbounds i8, ptr %r, i64 56
  %9 = load i32, ptr %m_tail_size.i, align 8
  %cmp5.not = icmp eq i32 %9, 0
  br i1 %cmp5.not, label %for.end, label %for.body.lr.ph

for.body.lr.ph:                                   ; preds = %_ZN7counter5resetEv.exit
  %m_tail.i = getelementptr inbounds i8, ptr %r, i64 80
  %wide.trip.count = zext i32 %9 to i64
  br label %for.body

for.body:                                         ; preds = %for.body.lr.ph, %for.body
  %indvars.iv = phi i64 [ 0, %for.body.lr.ph ], [ %indvars.iv.next, %for.body ]
  %arrayidx.i = getelementptr inbounds [0 x ptr], ptr %m_tail.i, i64 0, i64 %indvars.iv
  %10 = load ptr, ptr %arrayidx.i, align 8
  %11 = ptrtoint ptr %10 to i64
  %and.i = and i64 %11, -8
  %12 = inttoptr i64 %and.i to ptr
  tail call void @_ZN11var_counter10count_varsEPK3appi(ptr noundef nonnull align 8 dereferenceable(224) %this, ptr noundef %12, i32 noundef %coef)
  %indvars.iv.next = add nuw nsw i64 %indvars.iv, 1
  %exitcond.not = icmp eq i64 %indvars.iv.next, %wide.trip.count
  br i1 %exitcond.not, label %for.end, label %for.body, !llvm.loop !23

for.end:                                          ; preds = %for.body, %_ZN7counter5resetEv.exit
  ret void
}